; Function Attrs: nounwind uwtable
define hidden ptr @je_ecache_alloc(ptr noundef %0, ptr noundef %1, ptr noundef %2, ptr noundef %3, ptr noundef %4, i64 noundef %5, i64 noundef %6, i1 noundef zeroext %7, i1 noundef zeroext %8) local_unnamed_addr #1 {
tsdn_witness_tsdp_get.exit:
  %9 = alloca i8, align 1
  call void @llvm.lifetime.start.p0(i64 1, ptr nonnull %9) #9
  store i8 1, ptr %9, align 1, !tbaa !4
  %10 = call fastcc ptr @extent_recycle(ptr noundef %0, ptr noundef %1, ptr noundef %2, ptr noundef %3, ptr noundef %4, i64 noundef %5, i64 noundef %6, i1 noundef zeroext %7, ptr noundef %9, i1 noundef zeroext %8)
  call void @llvm.lifetime.end.p0(i64 1, ptr nonnull %9) #9
  ret ptr %10
}